; Function Attrs: mustprogress uwtable
define hidden void @_ZN2cv17QRCodeEncoderImpl14formatGenerateEiRSt6vectorIhSaIhEE(ptr noundef nonnull readonly align 8 captures(none) dereferenceable(384) %0, i32 noundef %1, ptr noundef nonnull align 8 dereferenceable(24) %2) local_unnamed_addr #4 align 2 personality ptr @__gxx_personality_v0 {
  %4 = alloca %"class.std::__cxx11::basic_string", align 8
  %5 = alloca %"class.std::allocator", align 1
  %6 = getelementptr inbounds nuw i8, ptr %0, i64 28
  %7 = load i32, ptr %6, align 4, !tbaa !33
  %8 = icmp ult i32 %7, 4
  br i1 %8, label %switch.lookup, label %9

9:                                                ; preds = %3
  call void @llvm.lifetime.start.p0(i64 32, ptr nonnull %4) #28
  call void @llvm.lifetime.start.p0(i64 1, ptr nonnull %5) #28
  call void @_ZNSt7__cxx1112basic_stringIcSt11char_traitsIcESaIcEEC2EPKcRKS3_(ptr noundef nonnull align 8 dereferenceable(32) %4, ptr noundef nonnull @.str, ptr noundef nonnull align 1 dereferenceable(1) %5)
  invoke void @_ZN2cv5errorEiRKNSt7__cxx1112basic_stringIcSt11char_traitsIcESaIcEEEPKcS9_i(i32 noundef -5, ptr noundef nonnull align 8 dereferenceable(32) %4, ptr noundef nonnull @__func__._ZN2cv17QRCodeEncoderImpl14eccLevelToCodeENS_13QRCodeEncoder15CorrectionLevelE, ptr noundef nonnull @.str.1, i32 noundef 259) #29
          to label %10 unwind label %11

10:                                               ; preds = %9
  unreachable

11:                                               ; preds = %9
  %12 = landingpad { ptr, i32 }
          cleanup
  %13 = load ptr, ptr %4, align 8, !tbaa !15
  %14 = getelementptr inbounds nuw i8, ptr %4, i64 16
  %15 = icmp eq ptr %13, %14
  br i1 %15, label %_ZNKSt7__cxx1112basic_stringIcSt11char_traitsIcESaIcEE11_M_is_localEv.exit.thread.i.i.i, label %_ZNKSt7__cxx1112basic_stringIcSt11char_traitsIcESaIcEE11_M_is_localEv.exit.i.i.i

_ZNKSt7__cxx1112basic_stringIcSt11char_traitsIcESaIcEE11_M_is_localEv.exit.thread.i.i.i: ; preds = %11
  %16 = getelementptr inbounds nuw i8, ptr %4, i64 8
  %17 = load i64, ptr %16, align 8, !tbaa !21
  %18 = icmp ult i64 %17, 16
  call void @llvm.assume(i1 %18)
  br label %_ZNSt7__cxx1112basic_stringIcSt11char_traitsIcESaIcEED2Ev.exit.i

_ZNKSt7__cxx1112basic_stringIcSt11char_traitsIcESaIcEE11_M_is_localEv.exit.i.i.i: ; preds = %11
  call void @_ZdlPv(ptr noundef %13) #30
  br label %_ZNSt7__cxx1112basic_stringIcSt11char_traitsIcESaIcEED2Ev.exit.i

_ZNSt7__cxx1112basic_stringIcSt11char_traitsIcESaIcEED2Ev.exit.i: ; preds = %_ZNKSt7__cxx1112basic_stringIcSt11char_traitsIcESaIcEE11_M_is_localEv.exit.i.i.i, %_ZNKSt7__cxx1112basic_stringIcSt11char_traitsIcESaIcEE11_M_is_localEv.exit.thread.i.i.i
  call void @llvm.lifetime.end.p0(i64 1, ptr nonnull %5) #28
  call void @llvm.lifetime.end.p0(i64 32, ptr nonnull %4) #28
  resume { ptr, i32 } %12

switch.lookup:                                    ; preds = %3
  %19 = zext nneg i32 %7 to i64
  %switch.gep = getelementptr inbounds nuw [4 x i32], ptr @switch.table._ZN2cv17QRCodeEncoderImpl14formatGenerateEiRSt6vectorIhSaIhEE, i64 0, i64 %19
  %switch.load = load i32, ptr %switch.gep, align 4
  %20 = or i32 %switch.load, %1
  tail call void @_ZNSt6vectorIhSaIhEE6resizeEm(ptr noundef nonnull align 8 dereferenceable(24) %2, i64 noundef 15)
  %21 = sext i32 %20 to i64
  %22 = getelementptr inbounds [32 x i16], ptr @_ZN2cvL13formatInfoLUTE, i64 0, i64 %21
  %23 = load i16, ptr %22, align 2, !tbaa !95
  %24 = zext i16 %23 to i32
  br label %26

25:                                               ; preds = %26
  ret void

26:                                               ; preds = %switch.lookup, %26
  %indvars.iv = phi i64 [ 0, %switch.lookup ], [ %indvars.iv.next, %26 ]
  %27 = trunc nuw nsw i64 %indvars.iv to i32
  %28 = lshr i32 %24, %27
  %29 = trunc i32 %28 to i8
  %30 = and i8 %29, 1
  %31 = load ptr, ptr %2, align 8, !tbaa !60
  %32 = getelementptr inbounds nuw i8, ptr %31, i64 %indvars.iv
  store i8 %30, ptr %32, align 1, !tbaa !57
  %indvars.iv.next = add nuw nsw i64 %indvars.iv, 1
  %exitcond.not = icmp eq i64 %indvars.iv.next, 15
  br i1 %exitcond.not, label %25, label %26, !llvm.loop !97
}